target datalayout = "e-m:e-p270:32:32-p271:32:32-p272:64:64-i64:64-i128:128-f80:128-n8:16:32:64-S128"
target triple = "x86_64-pc-linux-gnu"

; Function Attrs: mustprogress null_pointer_is_valid sspstrong uwtable
define void @_ZN18Iax2AnalysisDialog7tapDrawEPv(ptr noundef %0) #0 align 2 {
  %2 = alloca ptr, align 8
  %3 = alloca ptr, align 8
  %4 = alloca i32, align 4
  store ptr %0, ptr %2, align 8
  call void @llvm.lifetime.start.p0(i64 8, ptr %3) #24
  %5 = load ptr, ptr %2, align 8
  store ptr %5, ptr %3, align 8
  %6 = load ptr, ptr %3, align 8
  %7 = icmp ne ptr %6, null
  br i1 %7, label %9, label %8

8:                                                ; preds = %1
  store i32 1, ptr %4, align 4
  br label %11

9:                                                ; preds = %1
  %10 = load ptr, ptr %3, align 8
  call void @_ZN18Iax2AnalysisDialog16updateStatisticsEv(ptr noundef align 8 dereferenceable_or_null(10448) %10)
  store i32 0, ptr %4, align 4
  br label %11

11:                                               ; preds = %9, %8
  call void @llvm.lifetime.end.p0(i64 8, ptr %3) #24
  %12 = load i32, ptr %4, align 4
  switch i32 %12, label %14 [
    i32 0, label %13
    i32 1, label %13
  ]

13:                                               ; preds = %11, %11
  ret void

14:                                               ; preds = %11
  unreachable
}